; Function Attrs: mustprogress nofree norecurse nosync nounwind willreturn memory(none) uwtable
define noundef ptr @_Z15effnDescriptioni(i32 noundef %0) local_unnamed_addr #0 {
  %or.cond = icmp ult i32 %0, 11
  br i1 %or.cond, label %2, label %6

2:                                                ; preds = %1
  %3 = zext nneg i32 %0 to i64
  %4 = getelementptr inbounds nuw [11 x ptr], ptr @_ZL9longs_ffn, i64 0, i64 %3
  %5 = load ptr, ptr %4, align 8, !tbaa !8
  br label %6

6:                                                ; preds = %1, %2
  %.0 = phi ptr [ %5, %2 ], [ null, %1 ]
  ret ptr %.0
}